; Function Attrs: mustprogress nounwind uwtable
define dso_local { ptr, i64 } @_ZNK4llvm18DiagnosticLocation15getRelativePathEv(ptr noundef nonnull readonly align 8 captures(none) dereferenceable(16) %0) local_unnamed_addr #1 align 2 {
  %2 = load ptr, ptr %0, align 8
  %3 = getelementptr inbounds i8, ptr %2, i64 -16
  %4 = load i64, ptr %3, align 8
  %5 = and i64 %4, 2
  %.not.i.i.i.i.i = icmp eq i64 %5, 0
  br i1 %.not.i.i.i.i.i, label %10, label %6

6:                                                ; preds = %1
  %7 = getelementptr inbounds i8, ptr %2, i64 -32
  %8 = load ptr, ptr %7, align 8
  %9 = tail call noundef i64 @_ZNK4llvm15SmallVectorBaseIjE4sizeEv(ptr noundef nonnull align 8 dereferenceable(16) %7) #16
  br label %_ZNK4llvm6DINode12getOperandAsINS_8MDStringEEEPT_j.exit.i.i

10:                                               ; preds = %1
  %11 = lshr i64 %4, 2
  %12 = and i64 %11, 15
  %13 = sub nsw i64 0, %12
  %14 = getelementptr inbounds %"class.llvm::MDOperand", ptr %3, i64 %13
  br label %_ZNK4llvm6DINode12getOperandAsINS_8MDStringEEEPT_j.exit.i.i

_ZNK4llvm6DINode12getOperandAsINS_8MDStringEEEPT_j.exit.i.i: ; preds = %10, %6
  %.sroa.0.0.i.i.i.i.i = phi ptr [ %14, %10 ], [ %8, %6 ]
  %15 = load ptr, ptr %.sroa.0.0.i.i.i.i.i, align 8
  %.not.i.i = icmp eq ptr %15, null
  br i1 %.not.i.i, label %_ZNK4llvm6DIFile11getFilenameEv.exit, label %16

16:                                               ; preds = %_ZNK4llvm6DINode12getOperandAsINS_8MDStringEEEPT_j.exit.i.i
  %17 = tail call { ptr, i64 } @_ZNK4llvm8MDString9getStringEv(ptr noundef nonnull align 8 dereferenceable(16) %15) #16
  %18 = extractvalue { ptr, i64 } %17, 0
  %19 = extractvalue { ptr, i64 } %17, 1
  br label %_ZNK4llvm6DIFile11getFilenameEv.exit

_ZNK4llvm6DIFile11getFilenameEv.exit:             ; preds = %_ZNK4llvm6DINode12getOperandAsINS_8MDStringEEEPT_j.exit.i.i, %16
  %.sroa.0.0.i.i = phi ptr [ %18, %16 ], [ null, %_ZNK4llvm6DINode12getOperandAsINS_8MDStringEEEPT_j.exit.i.i ]
  %.sroa.4.0.i.i = phi i64 [ %19, %16 ], [ 0, %_ZNK4llvm6DINode12getOperandAsINS_8MDStringEEEPT_j.exit.i.i ]
  %.fca.0.insert.i.i = insertvalue { ptr, i64 } poison, ptr %.sroa.0.0.i.i, 0
  %.fca.1.insert.i.i = insertvalue { ptr, i64 } %.fca.0.insert.i.i, i64 %.sroa.4.0.i.i, 1
  ret { ptr, i64 } %.fca.1.insert.i.i
}